; Function Attrs: nounwind uwtable
define i32 @sws_scale(ptr noundef %0, ptr noundef readonly captures(address_is_null) %1, ptr noundef readonly captures(address_is_null) %2, i32 noundef %3, i32 noundef %4, ptr noundef readonly captures(address_is_null) %5, ptr noundef readonly captures(address_is_null) %6) local_unnamed_addr #0 {
  %8 = getelementptr inbounds nuw i8, ptr %0, i64 144
  %9 = load i32, ptr %8, align 16, !tbaa !145
  %.not = icmp eq i32 %9, 0
  br i1 %.not, label %14, label %10

10:                                               ; preds = %7
  %11 = getelementptr inbounds nuw i8, ptr %0, i64 128
  %12 = load ptr, ptr %11, align 16, !tbaa !136
  %13 = load ptr, ptr %12, align 8, !tbaa !137
  br label %14

14:                                               ; preds = %10, %7
  %.0 = phi ptr [ %13, %10 ], [ %0, %7 ]
  %15 = getelementptr inbounds nuw i8, ptr %.0, i64 68
  %16 = load i32, ptr %15, align 4, !tbaa !132
  %17 = tail call fastcc i32 @scale_internal(ptr noundef %.0, ptr noundef %1, ptr noundef %2, i32 noundef %3, i32 noundef %4, ptr noundef %5, ptr noundef %6, i32 noundef 0, i32 noundef %16)
  ret i32 %17
}